; Function Attrs: mustprogress uwtable
define void @_ZN6icu_7518CurrencyPluralInfo10initializeERKNS_6LocaleER10UErrorCode(ptr nocapture noundef nonnull align 8 dereferenceable(36) %this, ptr noundef nonnull align 8 dereferenceable(217) %loc, ptr noundef nonnull align 4 dereferenceable(4) %status) local_unnamed_addr #1 align 2 {
entry:
  %0 = load i32, ptr %status, align 4
  %cmp.i = icmp slt i32 %0, 1
  br i1 %cmp.i, label %if.end, label %return

if.end:                                           ; preds = %entry
  %fLocale = getelementptr inbounds i8, ptr %this, i64 24
  %1 = load ptr, ptr %fLocale, align 8
  %isnull = icmp eq ptr %1, null
  br i1 %isnull, label %delete.end, label %delete.notnull

delete.notnull:                                   ; preds = %if.end
  %vtable = load ptr, ptr %1, align 8
  %vfn = getelementptr inbounds i8, ptr %vtable, i64 8
  %2 = load ptr, ptr %vfn, align 8
  tail call void %2(ptr noundef nonnull align 8 dereferenceable(217) %1) #10
  br label %delete.end

delete.end:                                       ; preds = %delete.notnull, %if.end
  store ptr null, ptr %fLocale, align 8
  %fPluralRules = getelementptr inbounds i8, ptr %this, i64 16
  %3 = load ptr, ptr %fPluralRules, align 8
  %isnull3 = icmp eq ptr %3, null
  br i1 %isnull3, label %delete.end7, label %delete.notnull4

delete.notnull4:                                  ; preds = %delete.end
  %vtable5 = load ptr, ptr %3, align 8
  %vfn6 = getelementptr inbounds i8, ptr %vtable5, i64 8
  %4 = load ptr, ptr %vfn6, align 8
  tail call void %4(ptr noundef nonnull align 8 dereferenceable(28) %3) #10
  br label %delete.end7

delete.end7:                                      ; preds = %delete.notnull4, %delete.end
  store ptr null, ptr %fPluralRules, align 8
  %call9 = tail call noundef ptr @_ZNK6icu_756Locale5cloneEv(ptr noundef nonnull align 8 dereferenceable(217) %loc)
  store ptr %call9, ptr %fLocale, align 8
  %cmp = icmp eq ptr %call9, null
  br i1 %cmp, label %if.then12, label %if.end13

if.then12:                                        ; preds = %delete.end7
  store i32 7, ptr %status, align 4
  br label %return

if.end13:                                         ; preds = %delete.end7
  %fIsBogus.i = getelementptr inbounds i8, ptr %loc, i64 216
  %5 = load i8, ptr %fIsBogus.i, align 8
  %tobool15.not = icmp eq i8 %5, 0
  br i1 %tobool15.not, label %land.lhs.true, label %if.end20

land.lhs.true:                                    ; preds = %if.end13
  %fIsBogus.i9 = getelementptr inbounds i8, ptr %call9, i64 216
  %6 = load i8, ptr %fIsBogus.i9, align 8
  %tobool18.not = icmp eq i8 %6, 0
  br i1 %tobool18.not, label %if.end20, label %if.then19

if.then19:                                        ; preds = %land.lhs.true
  store i32 7, ptr %status, align 4
  br label %return

if.end20:                                         ; preds = %land.lhs.true, %if.end13
  %call21 = tail call noundef ptr @_ZN6icu_7511PluralRules9forLocaleERKNS_6LocaleER10UErrorCode(ptr noundef nonnull align 8 dereferenceable(217) %loc, ptr noundef nonnull align 4 dereferenceable(4) %status)
  store ptr %call21, ptr %fPluralRules, align 8
  tail call void @_ZN6icu_7518CurrencyPluralInfo26setupCurrencyPluralPatternERKNS_6LocaleER10UErrorCode(ptr noundef nonnull align 8 dereferenceable(36) %this, ptr noundef nonnull align 8 dereferenceable(217) %loc, ptr noundef nonnull align 4 dereferenceable(4) %status)
  br label %return

return:                                           ; preds = %entry, %if.end20, %if.then19, %if.then12
  ret void
}